target datalayout = "e-m:e-p270:32:32-p271:32:32-p272:64:64-i64:64-i128:128-f80:128-n8:16:32:64-S128"
target triple = "x86_64-pc-linux-gnu"

%"class.Eigen::Matrix" = type { %"class.Eigen::PlainObjectBase" }
%"class.Eigen::PlainObjectBase" = type { %"class.Eigen::DenseStorage" }
%"class.Eigen::DenseStorage" = type { %"struct.Eigen::internal::plain_array" }
%"struct.Eigen::internal::plain_array" = type { [16 x float] }
%class.EditSelectPlugin = type <{ %class.QObject, %class.EditTool, %"class.vcg::Point2", %"class.vcg::Point2", %"class.vcg::Point2", i8, [3 x i8], i32, %"class.std::vector.16", %"class.std::vector.21", %"class.std::vector.26", i32, i32, [16 x double], [16 x double], [4 x i32], %"class.Eigen::Matrix", [4 x float], i32, i8, [11 x i8] }>
%class.QObject = type { ptr, %class.QScopedPointer }
%class.QScopedPointer = type { ptr }
%class.EditTool = type { %class.MeshLabPluginLogger }
%class.MeshLabPluginLogger = type { ptr, ptr }
%"class.vcg::Point2" = type { [2 x float] }
%"class.std::vector.16" = type { %"struct.std::_Vector_base.17" }
%"struct.std::_Vector_base.17" = type { %"struct.std::_Vector_base<CFaceO *, std::allocator<CFaceO *>>::_Vector_impl" }
%"struct.std::_Vector_base<CFaceO *, std::allocator<CFaceO *>>::_Vector_impl" = type { %"struct.std::_Vector_base<CFaceO *, std::allocator<CFaceO *>>::_Vector_impl_data" }
%"struct.std::_Vector_base<CFaceO *, std::allocator<CFaceO *>>::_Vector_impl_data" = type { ptr, ptr, ptr }
%"class.std::vector.21" = type { %"struct.std::_Vector_base.22" }
%"struct.std::_Vector_base.22" = type { %"struct.std::_Vector_base<CVertexO *, std::allocator<CVertexO *>>::_Vector_impl" }
%"struct.std::_Vector_base<CVertexO *, std::allocator<CVertexO *>>::_Vector_impl" = type { %"struct.std::_Vector_base<CVertexO *, std::allocator<CVertexO *>>::_Vector_impl_data" }
%"struct.std::_Vector_base<CVertexO *, std::allocator<CVertexO *>>::_Vector_impl_data" = type { ptr, ptr, ptr }
%"class.std::vector.26" = type { %"struct.std::_Vector_base.27" }
%"struct.std::_Vector_base.27" = type { %"struct.std::_Vector_base<vcg::Point2<float>, std::allocator<vcg::Point2<float>>>::_Vector_impl" }
%"struct.std::_Vector_base<vcg::Point2<float>, std::allocator<vcg::Point2<float>>>::_Vector_impl" = type { %"struct.std::_Vector_base<vcg::Point2<float>, std::allocator<vcg::Point2<float>>>::_Vector_impl_data" }
%"struct.std::_Vector_base<vcg::Point2<float>, std::allocator<vcg::Point2<float>>>::_Vector_impl_data" = type { ptr, ptr, ptr }
%class.QPaintDevice = type { ptr, i16, ptr }
%class.QFlags = type { i32 }
%class.QInputEvent = type { %class.QEvent.base, %class.QFlags, i64 }
%class.QEvent.base = type <{ ptr, ptr, i16, i16 }>
%class.QPointF = type { double, double }
%class.QWidget = type { %class.QObject, %class.QPaintDevice, ptr }
%class.QFont = type <{ %class.QExplicitlySharedDataPointer, i32, [4 x i8] }>
%class.QExplicitlySharedDataPointer = type { ptr }
%class.QPoint = type { i32, i32 }
%class.QMouseEvent = type <{ %class.QInputEvent, %class.QPointF, %class.QPointF, %class.QPointF, i32, %class.QFlags.315, i32, %class.QVector2D, [4 x i8] }>
%class.QFlags.315 = type { i32 }
%class.QVector2D = type { [2 x float] }
%"class.__gnu_cxx::__normal_iterator.316" = type { ptr }
%class.QWidgetData = type { i64, i32, %class.QFlags.317, i32, %class.QRect, [4 x i8], %class.QPalette, %class.QFont, %class.QRect }
%class.QFlags.317 = type { i32 }
%class.QPalette = type <{ ptr, %union.anon.318, [4 x i8] }>
%union.anon.318 = type { %"struct.QPalette::Data" }
%"struct.QPalette::Data" = type { i32 }
%class.QRect = type { i32, i32, i32, i32 }

; Function Attrs: mustprogress nounwind uwtable
define linkonce_odr void @_ZN9__gnu_cxx17__normal_iteratorIPN3vcg6Point2IfEESt6vectorIS3_SaIS3_EEEC2ERKS4_(ptr noundef nonnull align 8 dereferenceable(8) %0, ptr noundef nonnull align 8 dereferenceable(8) %1) unnamed_addr #4 comdat align 2 {
  %3 = alloca ptr, align 8
  %4 = alloca ptr, align 8
  store ptr %0, ptr %3, align 8
  store ptr %1, ptr %4, align 8
  %5 = load ptr, ptr %3, align 8
  %6 = getelementptr inbounds %"class.__gnu_cxx::__normal_iterator.316", ptr %5, i32 0, i32 0
  %7 = load ptr, ptr %4, align 8
  %8 = load ptr, ptr %7, align 8
  store ptr %8, ptr %6, align 8
  ret void
}

; Function Attrs: mustprogress nounwind uwtable
define linkonce_odr noundef i32 @_ZNK5QRect6heightEv(ptr noundef nonnull align 4 dereferenceable(16) %0) #4 comdat align 2 {
  %2 = alloca ptr, align 8
  store ptr %0, ptr %2, align 8
  %3 = load ptr, ptr %2, align 8
  %4 = getelementptr inbounds %class.QRect, ptr %3, i32 0, i32 3
  %5 = load i32, ptr %4, align 4
  %6 = getelementptr inbounds %class.QRect, ptr %3, i32 0, i32 1
  %7 = load i32, ptr %6, align 4
  %8 = sub nsw i32 %5, %7
  %9 = add nsw i32 %8, 1
  ret i32 %9
}

; Function Attrs: mustprogress uwtable
define linkonce_odr noundef i32 @_ZNK12QPaintDevice16devicePixelRatioEv(ptr noundef nonnull align 8 dereferenceable(24) %0) #5 comdat align 2 {
  %2 = alloca ptr, align 8
  store ptr %0, ptr %2, align 8
  %3 = load ptr, ptr %2, align 8
  %4 = load ptr, ptr %3, align 8
  %5 = getelementptr inbounds ptr, ptr %4, i64 4
  %6 = load ptr, ptr %5, align 8
  %7 = call noundef i32 %6(ptr noundef nonnull align 8 dereferenceable(24) %3, i32 noundef 11)
  ret i32 %7
}

; Function Attrs: mustprogress nounwind uwtable
define linkonce_odr void @_ZN6QPointC2Eii(ptr noundef nonnull align 4 dereferenceable(8) %0, i32 noundef %1, i32 noundef %2) unnamed_addr #4 comdat align 2 {
  %4 = alloca ptr, align 8
  %5 = alloca i32, align 4
  %6 = alloca i32, align 4
  store ptr %0, ptr %4, align 8
  store i32 %1, ptr %5, align 4
  store i32 %2, ptr %6, align 4
  %7 = load ptr, ptr %4, align 8
  %8 = getelementptr inbounds %class.QPoint, ptr %7, i32 0, i32 0
  %9 = load i32, ptr %5, align 4
  store i32 %9, ptr %8, align 4
  %10 = getelementptr inbounds %class.QPoint, ptr %7, i32 0, i32 1
  %11 = load i32, ptr %6, align 4
  store i32 %11, ptr %10, align 4
  ret void
}

; Function Attrs: mustprogress nounwind uwtable
define linkonce_odr noundef i32 @_Z6qRoundd(double noundef %0) #4 comdat {
  %2 = alloca double, align 8
  store double %0, ptr %2, align 8
  %3 = load double, ptr %2, align 8
  %4 = fcmp oge double %3, 0.000000e+00
  br i1 %4, label %5, label %9

5:                                                ; preds = %1
  %6 = load double, ptr %2, align 8
  %7 = fadd double %6, 5.000000e-01
  %8 = fptosi double %7 to i32
  br label %22

9:                                                ; preds = %1
  %10 = load double, ptr %2, align 8
  %11 = load double, ptr %2, align 8
  %12 = fsub double %11, 1.000000e+00
  %13 = fptosi double %12 to i32
  %14 = sitofp i32 %13 to double
  %15 = fsub double %10, %14
  %16 = fadd double %15, 5.000000e-01
  %17 = fptosi double %16 to i32
  %18 = load double, ptr %2, align 8
  %19 = fsub double %18, 1.000000e+00
  %20 = fptosi double %19 to i32
  %21 = add nsw i32 %17, %20
  br label %22

22:                                               ; preds = %9, %5
  %23 = phi i32 [ %8, %5 ], [ %21, %9 ]
  ret i32 %23
}

; Function Attrs: mustprogress nounwind uwtable
define linkonce_odr noundef nonnull align 4 dereferenceable(8) ptr @_ZNK9__gnu_cxx17__normal_iteratorIPN3vcg6Point2IfEESt6vectorIS3_SaIS3_EEEdeEv(ptr noundef nonnull align 8 dereferenceable(8) %0) #4 comdat align 2 {
  %2 = alloca ptr, align 8
  store ptr %0, ptr %2, align 8
  %3 = load ptr, ptr %2, align 8
  %4 = getelementptr inbounds %"class.__gnu_cxx::__normal_iterator.316", ptr %3, i32 0, i32 0
  %5 = load ptr, ptr %4, align 8
  ret ptr %5
}

; Function Attrs: mustprogress nounwind uwtable
define linkonce_odr ptr @_ZNK9__gnu_cxx17__normal_iteratorIPN3vcg6Point2IfEESt6vectorIS3_SaIS3_EEEmiEl(ptr noundef nonnull align 8 dereferenceable(8) %0, i64 noundef %1) #4 comdat align 2 {
  %3 = alloca %"class.__gnu_cxx::__normal_iterator.316", align 8
  %4 = alloca ptr, align 8
  %5 = alloca i64, align 8
  %6 = alloca ptr, align 8
  store ptr %0, ptr %4, align 8
  store i64 %1, ptr %5, align 8
  %7 = load ptr, ptr %4, align 8
  %8 = getelementptr inbounds %"class.__gnu_cxx::__normal_iterator.316", ptr %7, i32 0, i32 0
  %9 = load ptr, ptr %8, align 8
  %10 = load i64, ptr %5, align 8
  %11 = sub i64 0, %10
  %12 = getelementptr inbounds %"class.vcg::Point2", ptr %9, i64 %11
  store ptr %12, ptr %6, align 8
  call void @_ZN9__gnu_cxx17__normal_iteratorIPN3vcg6Point2IfEESt6vectorIS3_SaIS3_EEEC2ERKS4_(ptr noundef nonnull align 8 dereferenceable(8) %3, ptr noundef nonnull align 8 dereferenceable(8) %6) #3
  %13 = getelementptr inbounds %"class.__gnu_cxx::__normal_iterator.316", ptr %3, i32 0, i32 0
  %14 = load ptr, ptr %13, align 8
  ret ptr %14
}

; Function Attrs: mustprogress nounwind uwtable
define linkonce_odr ptr @_ZNSt6vectorIN3vcg6Point2IfEESaIS2_EE3endEv(ptr noundef nonnull align 8 dereferenceable(24) %0) #4 comdat align 2 {
  %2 = alloca %"class.__gnu_cxx::__normal_iterator.316", align 8
  %3 = alloca ptr, align 8
  store ptr %0, ptr %3, align 8
  %4 = load ptr, ptr %3, align 8
  %5 = getelementptr inbounds %"struct.std::_Vector_base.27", ptr %4, i32 0, i32 0
  %6 = getelementptr inbounds %"struct.std::_Vector_base<vcg::Point2<float>, std::allocator<vcg::Point2<float>>>::_Vector_impl_data", ptr %5, i32 0, i32 1
  call void @_ZN9__gnu_cxx17__normal_iteratorIPN3vcg6Point2IfEESt6vectorIS3_SaIS3_EEEC2ERKS4_(ptr noundef nonnull align 8 dereferenceable(8) %2, ptr noundef nonnull align 8 dereferenceable(8) %6) #3
  %7 = getelementptr inbounds %"class.__gnu_cxx::__normal_iterator.316", ptr %2, i32 0, i32 0
  %8 = load ptr, ptr %7, align 8
  ret ptr %8
}

; Function Attrs: mustprogress nounwind uwtable
define linkonce_odr void @_ZN3vcg6Point2IfEC2Eff(ptr noundef nonnull align 4 dereferenceable(8) %0, float noundef %1, float noundef %2) unnamed_addr #4 comdat align 2 {
  %4 = alloca ptr, align 8
  %5 = alloca float, align 4
  %6 = alloca float, align 4
  store ptr %0, ptr %4, align 8
  store float %1, ptr %5, align 4
  store float %2, ptr %6, align 4
  %7 = load ptr, ptr %4, align 8
  %8 = load float, ptr %5, align 4
  %9 = getelementptr inbounds %"class.vcg::Point2", ptr %7, i32 0, i32 0
  %10 = getelementptr inbounds [2 x float], ptr %9, i64 0, i64 0
  store float %8, ptr %10, align 4
  %11 = load float, ptr %6, align 4
  %12 = getelementptr inbounds %"class.vcg::Point2", ptr %7, i32 0, i32 0
  %13 = getelementptr inbounds [2 x float], ptr %12, i64 0, i64 1
  store float %11, ptr %13, align 4
  ret void
}

; Function Attrs: mustprogress nounwind uwtable
define linkonce_odr noundef i32 @_ZNK6QPoint1yEv(ptr noundef nonnull align 4 dereferenceable(8) %0) #4 comdat align 2 {
  %2 = alloca ptr, align 8
  store ptr %0, ptr %2, align 8
  %3 = load ptr, ptr %2, align 8
  %4 = getelementptr inbounds %class.QPoint, ptr %3, i32 0, i32 1
  %5 = load i32, ptr %4, align 4
  ret i32 %5
}

; Function Attrs: mustprogress nounwind uwtable
define linkonce_odr noundef i32 @_ZNK7QWidget6heightEv(ptr noundef nonnull align 8 dereferenceable(48) %0) #4 comdat align 2 {
  %2 = alloca ptr, align 8
  store ptr %0, ptr %2, align 8
  %3 = load ptr, ptr %2, align 8
  %4 = getelementptr inbounds %class.QWidget, ptr %3, i32 0, i32 2
  %5 = load ptr, ptr %4, align 8
  %6 = getelementptr inbounds %class.QWidgetData, ptr %5, i32 0, i32 4
  %7 = call noundef i32 @_ZNK5QRect6heightEv(ptr noundef nonnull align 4 dereferenceable(16) %6) #3
  ret i32 %7
}

; Function Attrs: mustprogress uwtable
define linkonce_odr noundef i32 @_Z17QTLogicalToDeviceIiET_P7QWidgetRKS0_(ptr noundef %0, ptr noundef nonnull align 4 dereferenceable(4) %1) #5 comdat {
  %3 = alloca ptr, align 8
  %4 = alloca ptr, align 8
  store ptr %0, ptr %3, align 8
  store ptr %1, ptr %4, align 8
  %5 = load ptr, ptr %4, align 8
  %6 = load i32, ptr %5, align 4
  %7 = load ptr, ptr %3, align 8
  %8 = getelementptr inbounds i8, ptr %7, i64 16
  %9 = call noundef i32 @_ZNK12QPaintDevice16devicePixelRatioEv(ptr noundef nonnull align 8 dereferenceable(24) %8)
  %10 = mul nsw i32 %6, %9
  ret i32 %10
}

; Function Attrs: mustprogress nounwind uwtable
define linkonce_odr noundef i32 @_ZNK6QPoint1xEv(ptr noundef nonnull align 4 dereferenceable(8) %0) #4 comdat align 2 {
  %2 = alloca ptr, align 8
  store ptr %0, ptr %2, align 8
  %3 = load ptr, ptr %2, align 8
  %4 = getelementptr inbounds %class.QPoint, ptr %3, i32 0, i32 0
  %5 = load i32, ptr %4, align 4
  ret i32 %5
}

; Function Attrs: mustprogress uwtable
define linkonce_odr i64 @_ZNK7QPointF7toPointEv(ptr noundef nonnull align 8 dereferenceable(16) %0) #5 comdat align 2 {
  %2 = alloca %class.QPoint, align 4
  %3 = alloca ptr, align 8
  store ptr %0, ptr %3, align 8
  %4 = load ptr, ptr %3, align 8
  %5 = getelementptr inbounds %class.QPointF, ptr %4, i32 0, i32 0
  %6 = load double, ptr %5, align 8
  %7 = call noundef i32 @_Z6qRoundd(double noundef %6)
  %8 = getelementptr inbounds %class.QPointF, ptr %4, i32 0, i32 1
  %9 = load double, ptr %8, align 8
  %10 = call noundef i32 @_Z6qRoundd(double noundef %9)
  call void @_ZN6QPointC2Eii(ptr noundef nonnull align 4 dereferenceable(8) %2, i32 noundef %7, i32 noundef %10)
  %11 = load i64, ptr %2, align 4
  ret i64 %11
}

; Function Attrs: mustprogress nounwind uwtable
define linkonce_odr noundef nonnull align 4 dereferenceable(8) ptr @_ZNSt6vectorIN3vcg6Point2IfEESaIS2_EE4backEv(ptr noundef nonnull align 8 dereferenceable(24) %0) #4 comdat align 2 {
  %2 = alloca ptr, align 8
  %3 = alloca %"class.__gnu_cxx::__normal_iterator.316", align 8
  %4 = alloca %"class.__gnu_cxx::__normal_iterator.316", align 8
  store ptr %0, ptr %2, align 8
  %5 = load ptr, ptr %2, align 8
  %6 = call ptr @_ZNSt6vectorIN3vcg6Point2IfEESaIS2_EE3endEv(ptr noundef nonnull align 8 dereferenceable(24) %5) #3
  %7 = getelementptr inbounds %"class.__gnu_cxx::__normal_iterator.316", ptr %4, i32 0, i32 0
  store ptr %6, ptr %7, align 8
  %8 = call ptr @_ZNK9__gnu_cxx17__normal_iteratorIPN3vcg6Point2IfEESt6vectorIS3_SaIS3_EEEmiEl(ptr noundef nonnull align 8 dereferenceable(8) %4, i64 noundef 1) #3
  %9 = getelementptr inbounds %"class.__gnu_cxx::__normal_iterator.316", ptr %3, i32 0, i32 0
  store ptr %8, ptr %9, align 8
  %10 = call noundef nonnull align 4 dereferenceable(8) ptr @_ZNK9__gnu_cxx17__normal_iteratorIPN3vcg6Point2IfEESt6vectorIS3_SaIS3_EEEdeEv(ptr noundef nonnull align 8 dereferenceable(8) %3) #3
  ret ptr %10
}

; Function Attrs: mustprogress uwtable
define linkonce_odr <2 x float> @_Z17QTLogicalToOpenGLP7QWidgetRK6QPoint(ptr noundef %0, ptr noundef nonnull align 4 dereferenceable(8) %1) #13 comdat {
  %3 = alloca %"class.vcg::Point2", align 4
  %4 = alloca ptr, align 8
  %5 = alloca ptr, align 8
  %6 = alloca i32, align 4
  %7 = alloca i32, align 4
  store ptr %0, ptr %4, align 8
  store ptr %1, ptr %5, align 8
  %8 = load ptr, ptr %4, align 8
  %9 = load ptr, ptr %5, align 8
  %10 = call noundef i32 @_ZNK6QPoint1xEv(ptr noundef nonnull align 4 dereferenceable(8) %9)
  store i32 %10, ptr %6, align 4
  %11 = call noundef i32 @_Z17QTLogicalToDeviceIiET_P7QWidgetRKS0_(ptr noundef %8, ptr noundef nonnull align 4 dereferenceable(4) %6)
  %12 = sitofp i32 %11 to float
  %13 = load ptr, ptr %4, align 8
  %14 = load ptr, ptr %4, align 8
  %15 = call noundef i32 @_ZNK7QWidget6heightEv(ptr noundef nonnull align 8 dereferenceable(48) %14)
  %16 = load ptr, ptr %5, align 8
  %17 = call noundef i32 @_ZNK6QPoint1yEv(ptr noundef nonnull align 4 dereferenceable(8) %16)
  %18 = sub nsw i32 %15, %17
  store i32 %18, ptr %7, align 4
  %19 = call noundef i32 @_Z17QTLogicalToDeviceIiET_P7QWidgetRKS0_(ptr noundef %13, ptr noundef nonnull align 4 dereferenceable(4) %7)
  %20 = sitofp i32 %19 to float
  call void @_ZN3vcg6Point2IfEC2Eff(ptr noundef nonnull align 4 dereferenceable(8) %3, float noundef %12, float noundef %20)
  %21 = getelementptr inbounds %"class.vcg::Point2", ptr %3, i32 0, i32 0
  %22 = load <2 x float>, ptr %21, align 4
  ret <2 x float> %22
}

; Function Attrs: mustprogress uwtable
define linkonce_odr i64 @_ZNK11QMouseEvent3posEv(ptr noundef nonnull align 8 dereferenceable(100) %0) #5 comdat align 2 {
  %2 = alloca %class.QPoint, align 4
  %3 = alloca ptr, align 8
  store ptr %0, ptr %3, align 8
  %4 = load ptr, ptr %3, align 8
  %5 = getelementptr inbounds %class.QMouseEvent, ptr %4, i32 0, i32 1
  %6 = call i64 @_ZNK7QPointF7toPointEv(ptr noundef nonnull align 8 dereferenceable(16) %5)
  store i64 %6, ptr %2, align 4
  %7 = load i64, ptr %2, align 4
  ret i64 %7
}

; Function Attrs: mustprogress uwtable
define void @_ZN16EditSelectPlugin14mouseMoveEventEP11QMouseEventR9MeshModelP6GLArea(ptr noundef nonnull align 16 dereferenceable(501) %0, ptr noundef %1, ptr noundef nonnull align 8 dereferenceable(1288) %2, ptr noundef %3) unnamed_addr #13 align 2 {
  %5 = alloca ptr, align 8
  %6 = alloca ptr, align 8
  %7 = alloca ptr, align 8
  %8 = alloca ptr, align 8
  %9 = alloca %"class.vcg::Point2", align 4
  %10 = alloca %class.QPoint, align 4
  %11 = alloca %"class.vcg::Point2", align 4
  %12 = alloca %class.QPoint, align 4
  store ptr %0, ptr %5, align 8
  store ptr %1, ptr %6, align 8
  store ptr %2, ptr %7, align 8
  store ptr %3, ptr %8, align 8
  %13 = load ptr, ptr %5, align 8
  %14 = getelementptr inbounds %class.EditSelectPlugin, ptr %13, i32 0, i32 7
  %15 = load i32, ptr %14, align 4
  %16 = icmp eq i32 %15, 3
  br i1 %16, label %17, label %25

17:                                               ; preds = %4
  %18 = load ptr, ptr %8, align 8
  %19 = load ptr, ptr %6, align 8
  %20 = call i64 @_ZNK11QMouseEvent3posEv(ptr noundef nonnull align 8 dereferenceable(100) %19)
  store i64 %20, ptr %10, align 4
  %21 = call <2 x float> @_Z17QTLogicalToOpenGLP7QWidgetRK6QPoint(ptr noundef %18, ptr noundef nonnull align 4 dereferenceable(8) %10)
  %22 = getelementptr inbounds %"class.vcg::Point2", ptr %9, i32 0, i32 0
  store <2 x float> %21, ptr %22, align 4
  %23 = getelementptr inbounds %class.EditSelectPlugin, ptr %13, i32 0, i32 10
  %24 = call noundef nonnull align 4 dereferenceable(8) ptr @_ZNSt6vectorIN3vcg6Point2IfEESaIS2_EE4backEv(ptr noundef nonnull align 8 dereferenceable(24) %23) #3
  call void @llvm.memcpy.p0.p0.i64(ptr align 4 %24, ptr align 4 %9, i64 8, i1 false)
  br label %35

25:                                               ; preds = %4
  %26 = getelementptr inbounds %class.EditSelectPlugin, ptr %13, i32 0, i32 3
  %27 = getelementptr inbounds %class.EditSelectPlugin, ptr %13, i32 0, i32 4
  call void @llvm.memcpy.p0.p0.i64(ptr align 16 %27, ptr align 8 %26, i64 8, i1 false)
  %28 = load ptr, ptr %8, align 8
  %29 = load ptr, ptr %6, align 8
  %30 = call i64 @_ZNK11QMouseEvent3posEv(ptr noundef nonnull align 8 dereferenceable(100) %29)
  store i64 %30, ptr %12, align 4
  %31 = call <2 x float> @_Z17QTLogicalToOpenGLP7QWidgetRK6QPoint(ptr noundef %28, ptr noundef nonnull align 4 dereferenceable(8) %12)
  %32 = getelementptr inbounds %"class.vcg::Point2", ptr %11, i32 0, i32 0
  store <2 x float> %31, ptr %32, align 4
  %33 = getelementptr inbounds %class.EditSelectPlugin, ptr %13, i32 0, i32 3
  call void @llvm.memcpy.p0.p0.i64(ptr align 8 %33, ptr align 4 %11, i64 8, i1 false)
  %34 = getelementptr inbounds %class.EditSelectPlugin, ptr %13, i32 0, i32 5
  store i8 1, ptr %34, align 8
  br label %35

35:                                               ; preds = %25, %17
  %36 = load ptr, ptr %8, align 8
  call void @_ZN7QWidget6updateEv(ptr noundef nonnull align 8 dereferenceable(48) %36)
  ret void
}