; Function Attrs: mustprogress uwtable
define void @_ZN16EditSelectPlugin14mouseMoveEventEP11QMouseEventR9MeshModelP6GLArea(ptr nocapture noundef nonnull align 16 dereferenceable(501) %0, ptr nocapture noundef readonly %1, ptr nocapture nonnull readnone align 8 %2, ptr noundef %3) unnamed_addr #15 align 2 {
  %5 = getelementptr inbounds i8, ptr %0, i64 60
  %6 = load i32, ptr %5, align 4
  %7 = icmp eq i32 %6, 3
  br i1 %7, label %8, label %64

8:                                                ; preds = %4
  %9 = getelementptr inbounds i8, ptr %1, i64 32
  %10 = load double, ptr %9, align 8
  %11 = fcmp ult double %10, 0.000000e+00
  br i1 %11, label %15, label %12

12:                                               ; preds = %8
  %13 = fadd double %10, 5.000000e-01
  %14 = fptosi double %13 to i32
  br label %_Z6qRoundd.exit.i.i

15:                                               ; preds = %8
  %16 = fadd double %10, -1.000000e+00
  %17 = fptosi double %16 to i32
  %18 = sitofp i32 %17 to double
  %19 = fsub double %10, %18
  %20 = fadd double %19, 5.000000e-01
  %21 = fptosi double %20 to i32
  %22 = add nsw i32 %21, %17
  br label %_Z6qRoundd.exit.i.i

_Z6qRoundd.exit.i.i:                              ; preds = %15, %12
  %23 = phi i32 [ %14, %12 ], [ %22, %15 ]
  %24 = getelementptr inbounds i8, ptr %1, i64 40
  %25 = load double, ptr %24, align 8
  %26 = fcmp ult double %25, 0.000000e+00
  br i1 %26, label %30, label %27

27:                                               ; preds = %_Z6qRoundd.exit.i.i
  %28 = fadd double %25, 5.000000e-01
  %29 = fptosi double %28 to i32
  br label %_ZNK11QMouseEvent3posEv.exit

30:                                               ; preds = %_Z6qRoundd.exit.i.i
  %31 = fadd double %25, -1.000000e+00
  %32 = fptosi double %31 to i32
  %33 = sitofp i32 %32 to double
  %34 = fsub double %25, %33
  %35 = fadd double %34, 5.000000e-01
  %36 = fptosi double %35 to i32
  %37 = add nsw i32 %36, %32
  br label %_ZNK11QMouseEvent3posEv.exit

_ZNK11QMouseEvent3posEv.exit:                     ; preds = %27, %30
  %38 = phi i32 [ %29, %27 ], [ %37, %30 ]
  %39 = getelementptr inbounds i8, ptr %3, i64 16
  %40 = load ptr, ptr %39, align 8
  %41 = getelementptr inbounds i8, ptr %40, i64 32
  %42 = load ptr, ptr %41, align 8
  %43 = tail call noundef i32 %42(ptr noundef nonnull align 8 dereferenceable(24) %39, i32 noundef 11)
  %44 = mul nsw i32 %43, %23
  %45 = sitofp i32 %44 to float
  %46 = getelementptr inbounds i8, ptr %3, i64 40
  %47 = load ptr, ptr %46, align 8
  %48 = getelementptr inbounds i8, ptr %47, i64 32
  %49 = load i32, ptr %48, align 4
  %50 = getelementptr inbounds i8, ptr %47, i64 24
  %51 = load i32, ptr %50, align 4
  %52 = add i32 %49, 1
  %53 = add i32 %38, %51
  %54 = sub i32 %52, %53
  %55 = load ptr, ptr %39, align 8
  %56 = getelementptr inbounds i8, ptr %55, i64 32
  %57 = load ptr, ptr %56, align 8
  %58 = tail call noundef i32 %57(ptr noundef nonnull align 8 dereferenceable(24) %39, i32 noundef 11)
  %59 = mul nsw i32 %58, %54
  %60 = sitofp i32 %59 to float
  %.sroa.0.0.vec.insert.i = insertelement <2 x float> poison, float %45, i64 0
  %.sroa.0.4.vec.insert.i = insertelement <2 x float> %.sroa.0.0.vec.insert.i, float %60, i64 1
  %61 = getelementptr inbounds i8, ptr %0, i64 120
  %62 = load ptr, ptr %61, align 8
  %63 = getelementptr inbounds i8, ptr %62, i64 -8
  store <2 x float> %.sroa.0.4.vec.insert.i, ptr %63, align 4
  br label %121

64:                                               ; preds = %4
  %65 = getelementptr inbounds i8, ptr %0, i64 40
  %66 = getelementptr inbounds i8, ptr %0, i64 48
  %67 = load i64, ptr %65, align 8
  store i64 %67, ptr %66, align 16
  %68 = getelementptr inbounds i8, ptr %1, i64 32
  %69 = load double, ptr %68, align 8
  %70 = fcmp ult double %69, 0.000000e+00
  br i1 %70, label %74, label %71

71:                                               ; preds = %64
  %72 = fadd double %69, 5.000000e-01
  %73 = fptosi double %72 to i32
  br label %_Z6qRoundd.exit.i.i7

74:                                               ; preds = %64
  %75 = fadd double %69, -1.000000e+00
  %76 = fptosi double %75 to i32
  %77 = sitofp i32 %76 to double
  %78 = fsub double %69, %77
  %79 = fadd double %78, 5.000000e-01
  %80 = fptosi double %79 to i32
  %81 = add nsw i32 %80, %76
  br label %_Z6qRoundd.exit.i.i7

_Z6qRoundd.exit.i.i7:                             ; preds = %74, %71
  %82 = phi i32 [ %73, %71 ], [ %81, %74 ]
  %83 = getelementptr inbounds i8, ptr %1, i64 40
  %84 = load double, ptr %83, align 8
  %85 = fcmp ult double %84, 0.000000e+00
  br i1 %85, label %89, label %86

86:                                               ; preds = %_Z6qRoundd.exit.i.i7
  %87 = fadd double %84, 5.000000e-01
  %88 = fptosi double %87 to i32
  br label %_ZNK11QMouseEvent3posEv.exit12

89:                                               ; preds = %_Z6qRoundd.exit.i.i7
  %90 = fadd double %84, -1.000000e+00
  %91 = fptosi double %90 to i32
  %92 = sitofp i32 %91 to double
  %93 = fsub double %84, %92
  %94 = fadd double %93, 5.000000e-01
  %95 = fptosi double %94 to i32
  %96 = add nsw i32 %95, %91
  br label %_ZNK11QMouseEvent3posEv.exit12

_ZNK11QMouseEvent3posEv.exit12:                   ; preds = %86, %89
  %97 = phi i32 [ %88, %86 ], [ %96, %89 ]
  %98 = getelementptr inbounds i8, ptr %3, i64 16
  %99 = load ptr, ptr %98, align 8
  %100 = getelementptr inbounds i8, ptr %99, i64 32
  %101 = load ptr, ptr %100, align 8
  %102 = tail call noundef i32 %101(ptr noundef nonnull align 8 dereferenceable(24) %98, i32 noundef 11)
  %103 = mul nsw i32 %102, %82
  %104 = sitofp i32 %103 to float
  %105 = getelementptr inbounds i8, ptr %3, i64 40
  %106 = load ptr, ptr %105, align 8
  %107 = getelementptr inbounds i8, ptr %106, i64 32
  %108 = load i32, ptr %107, align 4
  %109 = getelementptr inbounds i8, ptr %106, i64 24
  %110 = load i32, ptr %109, align 4
  %111 = add i32 %108, 1
  %112 = add i32 %97, %110
  %113 = sub i32 %111, %112
  %114 = load ptr, ptr %98, align 8
  %115 = getelementptr inbounds i8, ptr %114, i64 32
  %116 = load ptr, ptr %115, align 8
  %117 = tail call noundef i32 %116(ptr noundef nonnull align 8 dereferenceable(24) %98, i32 noundef 11)
  %118 = mul nsw i32 %117, %113
  %119 = sitofp i32 %118 to float
  %.sroa.0.0.vec.insert.i14 = insertelement <2 x float> poison, float %104, i64 0
  %.sroa.0.4.vec.insert.i15 = insertelement <2 x float> %.sroa.0.0.vec.insert.i14, float %119, i64 1
  store <2 x float> %.sroa.0.4.vec.insert.i15, ptr %65, align 8
  %120 = getelementptr inbounds i8, ptr %0, i64 56
  store i8 1, ptr %120, align 8
  br label %121

121:                                              ; preds = %_ZNK11QMouseEvent3posEv.exit12, %_ZNK11QMouseEvent3posEv.exit
  tail call void @_ZN7QWidget6updateEv(ptr noundef nonnull align 8 dereferenceable(48) %3)
  ret void
}